target datalayout = "e-m:e-p270:32:32-p271:32:32-p272:64:64-i64:64-i128:128-f80:128-n8:16:32:64-S128"
target triple = "x86_64-pc-linux-gnu"

; Function Attrs: inlinehint nounwind sspstrong willreturn memory(none) uwtable
define internal i32 @rb_isspace(i32 noundef %0) #4 {
  %2 = alloca i32, align 4
  store i32 %0, ptr %2, align 4, !tbaa !20
  %3 = load i32, ptr %2, align 4, !tbaa !20
  %4 = icmp eq i32 %3, 32
  br i1 %4, label %13, label %5

5:                                                ; preds = %1
  %6 = load i32, ptr %2, align 4, !tbaa !20
  %7 = icmp sle i32 9, %6
  br i1 %7, label %8, label %11

8:                                                ; preds = %5
  %9 = load i32, ptr %2, align 4, !tbaa !20
  %10 = icmp sle i32 %9, 13
  br label %11

11:                                               ; preds = %8, %5
  %12 = phi i1 [ false, %5 ], [ %10, %8 ]
  br label %13

13:                                               ; preds = %11, %1
  %14 = phi i1 [ true, %1 ], [ %12, %11 ]
  %15 = zext i1 %14 to i32
  ret i32 %15
}

; Function Attrs: nounwind sspstrong uwtable
define dso_local void @ruby_each_words(ptr noundef %0, ptr noundef nonnull %1, ptr noundef %2) #2 {
  %4 = alloca ptr, align 8
  %5 = alloca ptr, align 8
  %6 = alloca ptr, align 8
  %7 = alloca ptr, align 8
  %8 = alloca i32, align 4
  %9 = alloca i32, align 4
  store ptr %0, ptr %4, align 8, !tbaa !7
  store ptr %1, ptr %5, align 8, !tbaa !28
  store ptr %2, ptr %6, align 8, !tbaa !28
  call void @llvm.lifetime.start.p0(i64 8, ptr %7) #16
  call void @llvm.lifetime.start.p0(i64 4, ptr %8) #16
  %10 = load ptr, ptr %4, align 8, !tbaa !7
  %11 = icmp ne ptr %10, null
  br i1 %11, label %13, label %12

12:                                               ; preds = %3
  store i32 1, ptr %9, align 4
  br label %77

13:                                               ; preds = %3
  br label %14

14:                                               ; preds = %74, %13
  %15 = load ptr, ptr %4, align 8, !tbaa !7
  %16 = load i8, ptr %15, align 1, !tbaa !16
  %17 = icmp ne i8 %16, 0
  br i1 %17, label %18, label %76

18:                                               ; preds = %14
  br label %19

19:                                               ; preds = %32, %18
  %20 = load ptr, ptr %4, align 8, !tbaa !7
  %21 = load i8, ptr %20, align 1, !tbaa !16
  %22 = sext i8 %21 to i32
  %23 = call i32 @rb_isspace(i32 noundef %22) #17
  %24 = icmp ne i32 %23, 0
  br i1 %24, label %30, label %25

25:                                               ; preds = %19
  %26 = load ptr, ptr %4, align 8, !tbaa !7
  %27 = load i8, ptr %26, align 1, !tbaa !16
  %28 = sext i8 %27 to i32
  %29 = icmp eq i32 %28, 44
  br label %30

30:                                               ; preds = %25, %19
  %31 = phi i1 [ true, %19 ], [ %29, %25 ]
  br i1 %31, label %32, label %35

32:                                               ; preds = %30
  %33 = load ptr, ptr %4, align 8, !tbaa !7
  %34 = getelementptr i8, ptr %33, i32 1
  store ptr %34, ptr %4, align 8, !tbaa !7
  br label %19, !llvm.loop !34

35:                                               ; preds = %30
  %36 = load ptr, ptr %4, align 8, !tbaa !7
  %37 = load i8, ptr %36, align 1, !tbaa !16
  %38 = icmp ne i8 %37, 0
  br i1 %38, label %40, label %39

39:                                               ; preds = %35
  br label %76

40:                                               ; preds = %35
  %41 = load ptr, ptr %4, align 8, !tbaa !7
  store ptr %41, ptr %7, align 8, !tbaa !7
  br label %42

42:                                               ; preds = %60, %40
  %43 = load ptr, ptr %7, align 8, !tbaa !7
  %44 = load i8, ptr %43, align 1, !tbaa !16
  %45 = sext i8 %44 to i32
  %46 = icmp ne i32 %45, 0
  br i1 %46, label %47, label %58

47:                                               ; preds = %42
  %48 = load ptr, ptr %7, align 8, !tbaa !7
  %49 = load i8, ptr %48, align 1, !tbaa !16
  %50 = sext i8 %49 to i32
  %51 = call i32 @rb_isspace(i32 noundef %50) #17
  %52 = icmp ne i32 %51, 0
  br i1 %52, label %58, label %53

53:                                               ; preds = %47
  %54 = load ptr, ptr %7, align 8, !tbaa !7
  %55 = load i8, ptr %54, align 1, !tbaa !16
  %56 = sext i8 %55 to i32
  %57 = icmp ne i32 %56, 44
  br label %58

58:                                               ; preds = %53, %47, %42
  %59 = phi i1 [ false, %47 ], [ false, %42 ], [ %57, %53 ]
  br i1 %59, label %60, label %63

60:                                               ; preds = %58
  %61 = load ptr, ptr %7, align 8, !tbaa !7
  %62 = getelementptr i8, ptr %61, i32 1
  store ptr %62, ptr %7, align 8, !tbaa !7
  br label %42, !llvm.loop !35

63:                                               ; preds = %58
  %64 = load ptr, ptr %7, align 8, !tbaa !7
  %65 = load ptr, ptr %4, align 8, !tbaa !7
  %66 = ptrtoint ptr %64 to i64
  %67 = ptrtoint ptr %65 to i64
  %68 = sub i64 %66, %67
  %69 = trunc i64 %68 to i32
  store i32 %69, ptr %8, align 4, !tbaa !20
  %70 = load ptr, ptr %5, align 8, !tbaa !28
  %71 = load ptr, ptr %4, align 8, !tbaa !7
  %72 = load i32, ptr %8, align 4, !tbaa !20
  %73 = load ptr, ptr %6, align 8, !tbaa !28
  call void %70(ptr noundef %71, i32 noundef %72, ptr noundef %73)
  br label %74

74:                                               ; preds = %63
  %75 = load ptr, ptr %7, align 8, !tbaa !7
  store ptr %75, ptr %4, align 8, !tbaa !7
  br label %14, !llvm.loop !36

76:                                               ; preds = %39, %14
  store i32 0, ptr %9, align 4
  br label %77

77:                                               ; preds = %76, %12
  call void @llvm.lifetime.end.p0(i64 4, ptr %8) #16
  call void @llvm.lifetime.end.p0(i64 8, ptr %7) #16
  %78 = load i32, ptr %9, align 4
  switch i32 %78, label %80 [
    i32 0, label %79
    i32 1, label %79
  ]

79:                                               ; preds = %77, %77
  ret void

80:                                               ; preds = %77
  unreachable
}